target datalayout = "e-m:e-p270:32:32-p271:32:32-p272:64:64-i64:64-i128:128-f80:128-n8:16:32:64-S128"
target triple = "x86_64-pc-linux-gnu"

%struct.fstWriterContext = type { ptr, ptr, ptr, ptr, ptr, ptr, ptr, i64, ptr, ptr, ptr, i32, ptr, i32, i32, i32, i8, i64, i64, i32, i32, i64, i64, i32, i32, i32, i64, i32, double, ptr, ptr, i32, i64, i8, i8, i8, i8, i8, i64, i64, i64, i64, i64, i32, ptr, i32, i8, ptr, ptr, ptr, ptr, i32 }

; Function Attrs: mustprogress nounwind uwtable
define void @fstWriterSetPackType(ptr noundef %0, i32 noundef %1) #8 {
  %3 = alloca ptr, align 8
  %4 = alloca i32, align 4
  %5 = alloca ptr, align 8
  store ptr %0, ptr %3, align 8, !tbaa !50
  store i32 %1, ptr %4, align 4, !tbaa !112
  call void @llvm.lifetime.start.p0(i64 8, ptr %5) #15
  %6 = load ptr, ptr %3, align 8, !tbaa !50
  store ptr %6, ptr %5, align 8, !tbaa !13
  %7 = load ptr, ptr %5, align 8, !tbaa !13
  %8 = icmp ne ptr %7, null
  br i1 %8, label %9, label %32

9:                                                ; preds = %2
  %10 = load i32, ptr %4, align 4, !tbaa !112
  %11 = icmp ne i32 %10, 0
  %12 = zext i1 %11 to i32
  %13 = load ptr, ptr %5, align 8, !tbaa !13
  %14 = getelementptr inbounds nuw %struct.fstWriterContext, ptr %13, i32 0, i32 16
  %15 = trunc i32 %12 to i8
  %16 = load i8, ptr %14, align 4
  %17 = and i8 %15, 1
  %18 = shl i8 %17, 3
  %19 = and i8 %16, -9
  %20 = or i8 %19, %18
  store i8 %20, ptr %14, align 4
  %21 = load i32, ptr %4, align 4, !tbaa !112
  %22 = icmp eq i32 %21, 2
  %23 = zext i1 %22 to i32
  %24 = load ptr, ptr %5, align 8, !tbaa !13
  %25 = getelementptr inbounds nuw %struct.fstWriterContext, ptr %24, i32 0, i32 16
  %26 = trunc i32 %23 to i8
  %27 = load i8, ptr %25, align 4
  %28 = and i8 %26, 1
  %29 = shl i8 %28, 2
  %30 = and i8 %27, -5
  %31 = or i8 %30, %29
  store i8 %31, ptr %25, align 4
  br label %32

32:                                               ; preds = %9, %2
  call void @llvm.lifetime.end.p0(i64 8, ptr %5) #15
  ret void
}