; Function Attrs: mustprogress nofree norecurse nosync nounwind willreturn memory(argmem: readwrite) uwtable
define void @fstWriterSetPackType(ptr noundef captures(address_is_null) %0, i32 noundef %1) local_unnamed_addr #11 {
  %.not = icmp eq ptr %0, null
  br i1 %.not, label %12, label %3

3:                                                ; preds = %2
  %.not5 = icmp eq i32 %1, 0
  %4 = getelementptr inbounds nuw i8, ptr %0, i64 116
  %5 = load i8, ptr %4, align 4
  %6 = select i1 %.not5, i8 0, i8 8
  %7 = and i8 %5, -13
  %8 = icmp eq i32 %1, 2
  %9 = select i1 %8, i8 4, i8 0
  %10 = or disjoint i8 %9, %6
  %11 = or disjoint i8 %10, %7
  store i8 %11, ptr %4, align 4
  br label %12

12:                                               ; preds = %3, %2
  ret void
}